target datalayout = "e-m:e-p270:32:32-p271:32:32-p272:64:64-i64:64-i128:128-f80:128-n8:16:32:64-S128"
target triple = "x86_64-pc-linux-gnu"

%struct.OnigCaseFoldCodeItem = type { i32, i32, [3 x i32] }

; Function Attrs: nounwind sspstrong uwtable
define internal i32 @get_upper_case(i32 noundef %0) #0 {
  %2 = alloca i32, align 4
  %3 = alloca i32, align 4
  %4 = alloca i32, align 4
  store i32 %0, ptr %3, align 4, !tbaa !17
  %5 = load i32, ptr %3, align 4, !tbaa !17
  %6 = sub i32 %5, 33409
  %7 = icmp ule i32 %6, 25
  br i1 %7, label %8, label %11

8:                                                ; preds = %1
  %9 = load i32, ptr %3, align 4, !tbaa !17
  %10 = sub i32 %9, 33
  store i32 %10, ptr %2, align 4
  br label %38

11:                                               ; preds = %1
  %12 = load i32, ptr %3, align 4, !tbaa !17
  %13 = sub i32 %12, 33727
  %14 = icmp ule i32 %13, 23
  br i1 %14, label %15, label %18

15:                                               ; preds = %11
  %16 = load i32, ptr %3, align 4, !tbaa !17
  %17 = sub i32 %16, 32
  store i32 %17, ptr %2, align 4
  br label %38

18:                                               ; preds = %11
  %19 = load i32, ptr %3, align 4, !tbaa !17
  %20 = sub i32 %19, 33904
  %21 = icmp ule i32 %20, 14
  br i1 %21, label %26, label %22

22:                                               ; preds = %18
  %23 = load i32, ptr %3, align 4, !tbaa !17
  %24 = sub i32 %23, 33920
  %25 = icmp ule i32 %24, 17
  br i1 %25, label %26, label %34

26:                                               ; preds = %22, %18
  call void @llvm.lifetime.start.p0(i64 4, ptr %4) #4
  %27 = load i32, ptr %3, align 4, !tbaa !17
  %28 = icmp uge i32 %27, 33920
  %29 = select i1 %28, i32 1, i32 0
  store i32 %29, ptr %4, align 4, !tbaa !17
  %30 = load i32, ptr %3, align 4, !tbaa !17
  %31 = load i32, ptr %4, align 4, !tbaa !17
  %32 = sub nsw i32 48, %31
  %33 = sub i32 %30, %32
  store i32 %33, ptr %2, align 4
  call void @llvm.lifetime.end.p0(i64 4, ptr %4) #4
  br label %38

34:                                               ; preds = %22
  br label %35

35:                                               ; preds = %34
  br label %36

36:                                               ; preds = %35
  %37 = load i32, ptr %3, align 4, !tbaa !17
  store i32 %37, ptr %2, align 4
  br label %38

38:                                               ; preds = %36, %26, %15, %8
  %39 = load i32, ptr %2, align 4
  ret i32 %39
}

; Function Attrs: nounwind sspstrong uwtable
define internal i32 @get_lower_case(i32 noundef %0) #0 {
  %2 = alloca i32, align 4
  %3 = alloca i32, align 4
  %4 = alloca i32, align 4
  store i32 %0, ptr %3, align 4, !tbaa !17
  %5 = load i32, ptr %3, align 4, !tbaa !17
  %6 = sub i32 %5, 33376
  %7 = icmp ule i32 %6, 25
  br i1 %7, label %8, label %11

8:                                                ; preds = %1
  %9 = load i32, ptr %3, align 4, !tbaa !17
  %10 = add i32 %9, 33
  store i32 %10, ptr %2, align 4
  br label %34

11:                                               ; preds = %1
  %12 = load i32, ptr %3, align 4, !tbaa !17
  %13 = sub i32 %12, 33695
  %14 = icmp ule i32 %13, 23
  br i1 %14, label %15, label %18

15:                                               ; preds = %11
  %16 = load i32, ptr %3, align 4, !tbaa !17
  %17 = add i32 %16, 32
  store i32 %17, ptr %2, align 4
  br label %34

18:                                               ; preds = %11
  %19 = load i32, ptr %3, align 4, !tbaa !17
  %20 = sub i32 %19, 33856
  %21 = icmp ule i32 %20, 32
  br i1 %21, label %22, label %30

22:                                               ; preds = %18
  call void @llvm.lifetime.start.p0(i64 4, ptr %4) #4
  %23 = load i32, ptr %3, align 4, !tbaa !17
  %24 = icmp uge i32 %23, 33871
  %25 = select i1 %24, i32 1, i32 0
  store i32 %25, ptr %4, align 4, !tbaa !17
  %26 = load i32, ptr %3, align 4, !tbaa !17
  %27 = load i32, ptr %4, align 4, !tbaa !17
  %28 = add nsw i32 48, %27
  %29 = add i32 %26, %28
  store i32 %29, ptr %2, align 4
  call void @llvm.lifetime.end.p0(i64 4, ptr %4) #4
  br label %34

30:                                               ; preds = %18
  br label %31

31:                                               ; preds = %30
  br label %32

32:                                               ; preds = %31
  %33 = load i32, ptr %3, align 4, !tbaa !17
  store i32 %33, ptr %2, align 4
  br label %34

34:                                               ; preds = %32, %22, %15, %8
  %35 = load i32, ptr %2, align 4
  ret i32 %35
}

; Function Attrs: nounwind sspstrong uwtable
define internal i32 @mbc_enc_len(ptr noundef %0, ptr noundef %1, ptr noundef %2) #0 {
  %4 = alloca i32, align 4
  %5 = alloca ptr, align 8
  %6 = alloca ptr, align 8
  %7 = alloca ptr, align 8
  %8 = alloca i32, align 4
  %9 = alloca i32, align 4
  %10 = alloca i32, align 4
  store ptr %0, ptr %5, align 8, !tbaa !13
  store ptr %1, ptr %6, align 8, !tbaa !13
  store ptr %2, ptr %7, align 8, !tbaa !14
  call void @llvm.lifetime.start.p0(i64 4, ptr %8) #4
  %11 = load ptr, ptr %5, align 8, !tbaa !13
  %12 = getelementptr inbounds nuw i8, ptr %11, i32 1
  store ptr %12, ptr %5, align 8, !tbaa !13
  %13 = load i8, ptr %11, align 1, !tbaa !16
  %14 = zext i8 %13 to i32
  store i32 %14, ptr %8, align 4, !tbaa !17
  call void @llvm.lifetime.start.p0(i64 4, ptr %9) #4
  %15 = load i32, ptr %8, align 4, !tbaa !17
  %16 = sext i32 %15 to i64
  %17 = getelementptr inbounds [256 x i8], ptr @trans, i64 0, i64 %16
  %18 = load i8, ptr %17, align 1, !tbaa !16
  %19 = sext i8 %18 to i32
  store i32 %19, ptr %9, align 4, !tbaa !17
  %20 = load i32, ptr %9, align 4, !tbaa !17
  %21 = icmp slt i32 %20, 0
  br i1 %21, label %22, label %26

22:                                               ; preds = %3
  %23 = load i32, ptr %9, align 4, !tbaa !17
  %24 = icmp eq i32 %23, -1
  %25 = select i1 %24, i32 1, i32 -1
  store i32 %25, ptr %4, align 4
  store i32 1, ptr %10, align 4
  br label %51

26:                                               ; preds = %3
  %27 = load ptr, ptr %5, align 8, !tbaa !13
  %28 = load ptr, ptr %6, align 8, !tbaa !13
  %29 = icmp eq ptr %27, %28
  br i1 %29, label %30, label %37

30:                                               ; preds = %26
  %31 = load i32, ptr %8, align 4, !tbaa !17
  %32 = sext i32 %31 to i64
  %33 = getelementptr inbounds [256 x i32], ptr @EncLen_SJIS, i64 0, i64 %32
  %34 = load i32, ptr %33, align 4, !tbaa !17
  %35 = sub nsw i32 %34, 1
  %36 = sub nsw i32 -1, %35
  store i32 %36, ptr %4, align 4
  store i32 1, ptr %10, align 4
  br label %51

37:                                               ; preds = %26
  %38 = load i32, ptr %9, align 4, !tbaa !17
  %39 = sext i32 %38 to i64
  %40 = getelementptr inbounds [2 x [256 x i8]], ptr @trans, i64 0, i64 %39
  %41 = load ptr, ptr %5, align 8, !tbaa !13
  %42 = getelementptr inbounds nuw i8, ptr %41, i32 1
  store ptr %42, ptr %5, align 8, !tbaa !13
  %43 = load i8, ptr %41, align 1, !tbaa !16
  %44 = zext i8 %43 to i64
  %45 = getelementptr inbounds nuw [256 x i8], ptr %40, i64 0, i64 %44
  %46 = load i8, ptr %45, align 1, !tbaa !16
  %47 = sext i8 %46 to i32
  store i32 %47, ptr %9, align 4, !tbaa !17
  %48 = load i32, ptr %9, align 4, !tbaa !17
  %49 = icmp eq i32 %48, -1
  %50 = select i1 %49, i32 2, i32 -1
  store i32 %50, ptr %4, align 4
  store i32 1, ptr %10, align 4
  br label %51

51:                                               ; preds = %37, %30, %22
  call void @llvm.lifetime.end.p0(i64 4, ptr %9) #4
  call void @llvm.lifetime.end.p0(i64 4, ptr %8) #4
  %52 = load i32, ptr %4, align 4
  ret i32 %52
}

; Function Attrs: nounwind sspstrong uwtable
define internal i32 @mbc_to_code(ptr noundef %0, ptr noundef %1, ptr noundef %2) #0 {
  %4 = alloca i32, align 4
  %5 = alloca ptr, align 8
  %6 = alloca ptr, align 8
  %7 = alloca ptr, align 8
  %8 = alloca i32, align 4
  %9 = alloca i32, align 4
  %10 = alloca i32, align 4
  %11 = alloca i32, align 4
  %12 = alloca i32, align 4
  store ptr %0, ptr %5, align 8, !tbaa !13
  store ptr %1, ptr %6, align 8, !tbaa !13
  store ptr %2, ptr %7, align 8, !tbaa !14
  call void @llvm.lifetime.start.p0(i64 4, ptr %8) #4
  call void @llvm.lifetime.start.p0(i64 4, ptr %9) #4
  call void @llvm.lifetime.start.p0(i64 4, ptr %10) #4
  call void @llvm.lifetime.start.p0(i64 4, ptr %11) #4
  %13 = load ptr, ptr %5, align 8, !tbaa !13
  %14 = load ptr, ptr %6, align 8, !tbaa !13
  %15 = load ptr, ptr %7, align 8, !tbaa !14
  %16 = call i32 @mbc_enc_len(ptr noundef %13, ptr noundef %14, ptr noundef %15)
  store i32 %16, ptr %10, align 4, !tbaa !17
  %17 = load ptr, ptr %5, align 8, !tbaa !13
  %18 = getelementptr inbounds nuw i8, ptr %17, i32 1
  store ptr %18, ptr %5, align 8, !tbaa !13
  %19 = load i8, ptr %17, align 1, !tbaa !16
  %20 = zext i8 %19 to i32
  store i32 %20, ptr %8, align 4, !tbaa !17
  %21 = load i32, ptr %8, align 4, !tbaa !17
  store i32 %21, ptr %11, align 4, !tbaa !17
  %22 = load i32, ptr %10, align 4, !tbaa !17
  %23 = icmp eq i32 %22, 1
  br i1 %23, label %24, label %26

24:                                               ; preds = %3
  %25 = load i32, ptr %11, align 4, !tbaa !17
  store i32 %25, ptr %4, align 4
  store i32 1, ptr %12, align 4
  br label %51

26:                                               ; preds = %3
  store i32 1, ptr %9, align 4, !tbaa !17
  br label %27

27:                                               ; preds = %46, %26
  %28 = load i32, ptr %9, align 4, !tbaa !17
  %29 = load i32, ptr %10, align 4, !tbaa !17
  %30 = icmp slt i32 %28, %29
  br i1 %30, label %31, label %49

31:                                               ; preds = %27
  %32 = load ptr, ptr %5, align 8, !tbaa !13
  %33 = load ptr, ptr %6, align 8, !tbaa !13
  %34 = icmp uge ptr %32, %33
  br i1 %34, label %35, label %36

35:                                               ; preds = %31
  br label %49

36:                                               ; preds = %31
  %37 = load ptr, ptr %5, align 8, !tbaa !13
  %38 = getelementptr inbounds nuw i8, ptr %37, i32 1
  store ptr %38, ptr %5, align 8, !tbaa !13
  %39 = load i8, ptr %37, align 1, !tbaa !16
  %40 = zext i8 %39 to i32
  store i32 %40, ptr %8, align 4, !tbaa !17
  %41 = load i32, ptr %11, align 4, !tbaa !17
  %42 = shl i32 %41, 8
  store i32 %42, ptr %11, align 4, !tbaa !17
  %43 = load i32, ptr %8, align 4, !tbaa !17
  %44 = load i32, ptr %11, align 4, !tbaa !17
  %45 = add i32 %44, %43
  store i32 %45, ptr %11, align 4, !tbaa !17
  br label %46

46:                                               ; preds = %36
  %47 = load i32, ptr %9, align 4, !tbaa !17
  %48 = add nsw i32 %47, 1
  store i32 %48, ptr %9, align 4, !tbaa !17
  br label %27, !llvm.loop !18

49:                                               ; preds = %35, %27
  %50 = load i32, ptr %11, align 4, !tbaa !17
  store i32 %50, ptr %4, align 4
  store i32 1, ptr %12, align 4
  br label %51

51:                                               ; preds = %49, %24
  call void @llvm.lifetime.end.p0(i64 4, ptr %11) #4
  call void @llvm.lifetime.end.p0(i64 4, ptr %10) #4
  call void @llvm.lifetime.end.p0(i64 4, ptr %9) #4
  call void @llvm.lifetime.end.p0(i64 4, ptr %8) #4
  %52 = load i32, ptr %4, align 4
  ret i32 %52
}

; Function Attrs: nounwind sspstrong uwtable
define internal i32 @get_case_fold_codes_by_str(i32 noundef %0, ptr noundef %1, ptr noundef %2, ptr noundef %3, ptr noundef %4) #0 {
  %6 = alloca i32, align 4
  %7 = alloca i32, align 4
  %8 = alloca ptr, align 8
  %9 = alloca ptr, align 8
  %10 = alloca ptr, align 8
  %11 = alloca ptr, align 8
  %12 = alloca i32, align 4
  %13 = alloca i32, align 4
  %14 = alloca i32, align 4
  %15 = alloca i32, align 4
  %16 = alloca i32, align 4
  store i32 %0, ptr %7, align 4, !tbaa !17
  store ptr %1, ptr %8, align 8, !tbaa !13
  store ptr %2, ptr %9, align 8, !tbaa !13
  store ptr %3, ptr %10, align 8, !tbaa !22
  store ptr %4, ptr %11, align 8, !tbaa !14
  call void @llvm.lifetime.start.p0(i64 4, ptr %12) #4
  call void @llvm.lifetime.start.p0(i64 4, ptr %13) #4
  call void @llvm.lifetime.start.p0(i64 4, ptr %14) #4
  call void @llvm.lifetime.start.p0(i64 4, ptr %15) #4
  %17 = load ptr, ptr %8, align 8, !tbaa !13
  %18 = load ptr, ptr %9, align 8, !tbaa !13
  %19 = load ptr, ptr %11, align 8, !tbaa !14
  %20 = call i32 @mbc_to_code(ptr noundef %17, ptr noundef %18, ptr noundef %19)
  store i32 %20, ptr %13, align 4, !tbaa !17
  %21 = load i32, ptr %13, align 4, !tbaa !17
  %22 = icmp ult i32 %21, 128
  br i1 %22, label %23, label %30

23:                                               ; preds = %5
  %24 = load i32, ptr %7, align 4, !tbaa !17
  %25 = load ptr, ptr %8, align 8, !tbaa !13
  %26 = load ptr, ptr %9, align 8, !tbaa !13
  %27 = load ptr, ptr %10, align 8, !tbaa !22
  %28 = load ptr, ptr %11, align 8, !tbaa !14
  %29 = call i32 @onigenc_ascii_get_case_fold_codes_by_str(i32 noundef %24, ptr noundef %25, ptr noundef %26, ptr noundef %27, ptr noundef %28)
  store i32 %29, ptr %6, align 4
  store i32 1, ptr %16, align 4
  br label %74

30:                                               ; preds = %5
  %31 = load ptr, ptr %8, align 8, !tbaa !13
  %32 = load ptr, ptr %9, align 8, !tbaa !13
  %33 = load ptr, ptr %11, align 8, !tbaa !14
  %34 = call i32 @mbc_enc_len(ptr noundef %31, ptr noundef %32, ptr noundef %33)
  store i32 %34, ptr %12, align 4, !tbaa !17
  %35 = load i32, ptr %13, align 4, !tbaa !17
  %36 = call i32 @get_lower_case(i32 noundef %35)
  store i32 %36, ptr %14, align 4, !tbaa !17
  %37 = load i32, ptr %13, align 4, !tbaa !17
  %38 = call i32 @get_upper_case(i32 noundef %37)
  store i32 %38, ptr %15, align 4, !tbaa !17
  %39 = load i32, ptr %13, align 4, !tbaa !17
  %40 = load i32, ptr %14, align 4, !tbaa !17
  %41 = icmp ne i32 %39, %40
  br i1 %41, label %42, label %55

42:                                               ; preds = %30
  %43 = load i32, ptr %12, align 4, !tbaa !17
  %44 = load ptr, ptr %10, align 8, !tbaa !22
  %45 = getelementptr inbounds %struct.OnigCaseFoldCodeItem, ptr %44, i64 0
  %46 = getelementptr inbounds nuw %struct.OnigCaseFoldCodeItem, ptr %45, i32 0, i32 0
  store i32 %43, ptr %46, align 4, !tbaa !23
  %47 = load ptr, ptr %10, align 8, !tbaa !22
  %48 = getelementptr inbounds %struct.OnigCaseFoldCodeItem, ptr %47, i64 0
  %49 = getelementptr inbounds nuw %struct.OnigCaseFoldCodeItem, ptr %48, i32 0, i32 1
  store i32 1, ptr %49, align 4, !tbaa !25
  %50 = load i32, ptr %14, align 4, !tbaa !17
  %51 = load ptr, ptr %10, align 8, !tbaa !22
  %52 = getelementptr inbounds %struct.OnigCaseFoldCodeItem, ptr %51, i64 0
  %53 = getelementptr inbounds nuw %struct.OnigCaseFoldCodeItem, ptr %52, i32 0, i32 2
  %54 = getelementptr inbounds [3 x i32], ptr %53, i64 0, i64 0
  store i32 %50, ptr %54, align 4, !tbaa !17
  store i32 1, ptr %6, align 4
  store i32 1, ptr %16, align 4
  br label %74

55:                                               ; preds = %30
  %56 = load i32, ptr %13, align 4, !tbaa !17
  %57 = load i32, ptr %15, align 4, !tbaa !17
  %58 = icmp ne i32 %56, %57
  br i1 %58, label %59, label %72

59:                                               ; preds = %55
  %60 = load i32, ptr %12, align 4, !tbaa !17
  %61 = load ptr, ptr %10, align 8, !tbaa !22
  %62 = getelementptr inbounds %struct.OnigCaseFoldCodeItem, ptr %61, i64 0
  %63 = getelementptr inbounds nuw %struct.OnigCaseFoldCodeItem, ptr %62, i32 0, i32 0
  store i32 %60, ptr %63, align 4, !tbaa !23
  %64 = load ptr, ptr %10, align 8, !tbaa !22
  %65 = getelementptr inbounds %struct.OnigCaseFoldCodeItem, ptr %64, i64 0
  %66 = getelementptr inbounds nuw %struct.OnigCaseFoldCodeItem, ptr %65, i32 0, i32 1
  store i32 1, ptr %66, align 4, !tbaa !25
  %67 = load i32, ptr %15, align 4, !tbaa !17
  %68 = load ptr, ptr %10, align 8, !tbaa !22
  %69 = getelementptr inbounds %struct.OnigCaseFoldCodeItem, ptr %68, i64 0
  %70 = getelementptr inbounds nuw %struct.OnigCaseFoldCodeItem, ptr %69, i32 0, i32 2
  %71 = getelementptr inbounds [3 x i32], ptr %70, i64 0, i64 0
  store i32 %67, ptr %71, align 4, !tbaa !17
  store i32 1, ptr %6, align 4
  store i32 1, ptr %16, align 4
  br label %74

72:                                               ; preds = %55
  br label %73

73:                                               ; preds = %72
  store i32 0, ptr %6, align 4
  store i32 1, ptr %16, align 4
  br label %74

74:                                               ; preds = %73, %59, %42, %23
  call void @llvm.lifetime.end.p0(i64 4, ptr %15) #4
  call void @llvm.lifetime.end.p0(i64 4, ptr %14) #4
  call void @llvm.lifetime.end.p0(i64 4, ptr %13) #4
  call void @llvm.lifetime.end.p0(i64 4, ptr %12) #4
  %75 = load i32, ptr %6, align 4
  ret i32 %75
}